(lp1
(lp2
S'D-428'
p3
aS'T-14'
p4
aa(lp5
S'D-428'
p6
aS'T-14'
p7
aa(lp8
S'D-428'
p9
aS'T-14'
p10
aa(lp11
S'D-428'
p12
aS'T-14'
p13
aa(lp14
S'D-428'
p15
aS'T-14'
p16
aa(lp17
S'D-428'
p18
aS'T-14'
p19
aa(lp20
S'D-428'
p21
aS'T-14'
p22
aa(lp23
S'D-428'
p24
aS'T-14'
p25
aa(lp26
S'D-428'
p27
aS'T-14'
p28
aa(lp29
S'D-428'
p30
aS'T-14'
p31
aa(lp32
S'D-428'
p33
aS'T-14'
p34
aa(lp35
S'D-428'
p36
aS'T-14'
p37
aa(lp38
S'D-466'
p39
aS'T-7'
p40
aa(lp41
S'D-466'
p42
aS'T-7'
p43
aa(lp44
S'D-466'
p45
aS'T-7'
p46
aa(lp47
S'D-466'
p48
aS'T-7'
p49
aa(lp50
S'D-466'
p51
aS'T-7'
p52
aa(lp53
S'D-466'
p54
aS'T-7'
p55
aa(lp56
S'D-466'
p57
aS'T-7'
p58
aa(lp59
S'D-466'
p60
aS'T-7'
p61
aa(lp62
S'D-466'
p63
aS'T-7'
p64
aa(lp65
S'D-466'
p66
aS'T-7'
p67
aa(lp68
S'D-428'
p69
aS'T-6'
p70
aa(lp71
S'D-428'
p72
aS'T-6'
p73
aa(lp74
S'D-428'
p75
aS'T-6'
p76
aa(lp77
S'D-428'
p78
aS'T-6'
p79
aa(lp80
S'D-414'
p81
aS'T-1'
p82
aa(lp83
S'D-414'
p84
aS'T-1'
p85
aa(lp86
S'D-414'
p87
aS'T-1'
p88
aa(lp89
S'D-414'
p90
aS'T-1'
p91
aa(lp92
S'D-414'
p93
aS'T-1'
p94
aa(lp95
S'D-414'
p96
aS'T-1'
p97
aa(lp98
S'D-414'
p99
aS'T-1'
p100
aa(lp101
S'D-414'
p102
aS'T-1'
p103
aa(lp104
S'D-414'
p105
aS'T-1'
p106
aa(lp107
S'D-414'
p108
aS'T-1'
p109
aa(lp110
S'D-414'
p111
aS'T-1'
p112
aa(lp113
S'D-414'
p114
aS'T-1'
p115
aa(lp116
S'D-299'
p117
aS'T-24'
p118
aa(lp119
S'D-299'
p120
aS'T-24'
p121
aa(lp122
S'D-299'
p123
aS'T-24'
p124
aa(lp125
S'D-299'
p126
aS'T-24'
p127
aa(lp128
S'D-299'
p129
aS'T-24'
p130
aa(lp131
S'D-299'
p132
aS'T-24'
p133
aa(lp134
S'D-299'
p135
aS'T-25'
p136
aa(lp137
S'D-299'
p138
aS'T-25'
p139
aa(lp140
S'D-299'
p141
aS'T-25'
p142
aa(lp143
S'D-299'
p144
aS'T-25'
p145
aa(lp146
S'D-299'
p147
aS'T-25'
p148
aa(lp149
S'D-299'
p150
aS'T-25'
p151
aa(lp152
S'D-299'
p153
aS'T-25'
p154
aa(lp155
S'D-299'
p156
aS'T-25'
p157
aa(lp158
S'D-299'
p159
aS'T-25'
p160
aa(lp161
S'D-299'
p162
aS'T-25'
p163
aa(lp164
S'D-299'
p165
aS'T-25'
p166
aa(lp167
S'D-299'
p168
aS'T-25'
p169
aa(lp170
S'D-299'
p171
aS'T-22'
p172
aa(lp173
S'D-299'
p174
aS'T-22'
p175
aa(lp176
S'D-299'
p177
aS'T-22'
p178
aa(lp179
S'D-299'
p180
aS'T-23'
p181
aa(lp182
S'D-299'
p183
aS'T-23'
p184
aa(lp185
S'D-299'
p186
aS'T-23'
p187
aa(lp188
S'D-299'
p189
aS'T-23'
p190
aa(lp191
S'D-466'
p192
aS'T-20'
p193
aa(lp194
S'D-466'
p195
aS'T-20'
p196
aa(lp197
S'D-466'
p198
aS'T-20'
p199
aa(lp200
S'D-466'
p201
aS'T-20'
p202
aa(lp203
S'D-466'
p204
aS'T-20'
p205
aa(lp206
S'D-466'
p207
aS'T-20'
p208
aa(lp209
S'D-466'
p210
aS'T-20'
p211
aa(lp212
S'D-466'
p213
aS'T-20'
p214
aa(lp215
S'D-466'
p216
aS'T-20'
p217
aa(lp218
S'D-466'
p219
aS'T-20'
p220
aa(lp221
S'D-466'
p222
aS'T-20'
p223
aa(lp224
S'D-466'
p225
aS'T-20'
p226
aa(lp227
S'D-428'
p228
aS'T-21'
p229
aa(lp230
S'D-428'
p231
aS'T-21'
p232
aa(lp233
S'D-428'
p234
aS'T-21'
p235
aa(lp236
S'D-428'
p237
aS'T-21'
p238
aa(lp239
S'D-428'
p240
aS'T-21'
p241
aa(lp242
S'D-428'
p243
aS'T-21'
p244
aa(lp245
S'D-428'
p246
aS'T-21'
p247
aa(lp248
S'D-428'
p249
aS'T-21'
p250
aa(lp251
S'D-428'
p252
aS'T-21'
p253
aa(lp254
S'D-428'
p255
aS'T-21'
p256
aa(lp257
S'D-414'
p258
aS'T-4'
p259
aa(lp260
S'D-414'
p261
aS'T-4'
p262
aa(lp263
S'D-414'
p264
aS'T-4'
p265
aa(lp266
S'D-414'
p267
aS'T-4'
p268
aa(lp269
S'D-414'
p270
aS'T-4'
p271
aa(lp272
S'D-414'
p273
aS'T-4'
p274
aa(lp275
S'D-414'
p276
aS'T-4'
p277
aa(lp278
S'D-414'
p279
aS'T-4'
p280
aa(lp281
S'D-414'
p282
aS'T-5'
p283
aa(lp284
S'D-414'
p285
aS'T-5'
p286
aa(lp287
S'D-414'
p288
aS'T-5'
p289
aa(lp290
S'D-414'
p291
aS'T-5'
p292
aa(lp293
S'D-414'
p294
aS'T-5'
p295
aa(lp296
S'D-414'
p297
aS'T-5'
p298
aa(lp299
S'D-414'
p300
aS'T-5'
p301
aa(lp302
S'D-414'
p303
aS'T-5'
p304
aa(lp305
S'D-414'
p306
aS'T-5'
p307
aa(lp308
S'D-414'
p309
aS'T-5'
p310
aa(lp311
S'D-414'
p312
aS'T-5'
p313
aa(lp314
S'D-414'
p315
aS'T-5'
p316
aa(lp317
S'D-414'
p318
aS'T-2'
p319
aa(lp320
S'D-414'
p321
aS'T-2'
p322
aa(lp323
S'D-414'
p324
aS'T-2'
p325
aa(lp326
S'D-414'
p327
aS'T-2'
p328
aa(lp329
S'D-414'
p330
aS'T-2'
p331
aa(lp332
S'D-414'
p333
aS'T-2'
p334
aa(lp335
S'D-414'
p336
aS'T-2'
p337
aa(lp338
S'D-414'
p339
aS'T-2'
p340
aa(lp341
S'D-414'
p342
aS'T-2'
p343
aa(lp344
S'D-414'
p345
aS'T-2'
p346
aa(lp347
S'D-414'
p348
aS'T-2'
p349
aa(lp350
S'D-414'
p351
aS'T-2'
p352
aa(lp353
S'D-414'
p354
aS'T-3'
p355
aa(lp356
S'D-414'
p357
aS'T-3'
p358
aa(lp359
S'D-414'
p360
aS'T-3'
p361
aa(lp362
S'D-414'
p363
aS'T-3'
p364
aa(lp365
S'D-414'
p366
aS'T-3'
p367
aa(lp368
S'D-414'
p369
aS'T-3'
p370
aa(lp371
S'D-62'
p372
aS'T-8'
p373
aa(lp374
S'D-62'
p375
aS'T-8'
p376
aa(lp377
S'D-62'
p378
aS'T-8'
p379
aa(lp380
S'D-62'
p381
aS'T-8'
p382
aa(lp383
S'D-62'
p384
aS'T-8'
p385
aa(lp386
S'D-62'
p387
aS'T-8'
p388
aa(lp389
S'D-62'
p390
aS'T-8'
p391
aa(lp392
S'D-62'
p393
aS'T-8'
p394
aa(lp395
S'D-62'
p396
aS'T-9'
p397
aa(lp398
S'D-62'
p399
aS'T-9'
p400
aa(lp401
S'D-62'
p402
aS'T-9'
p403
aa(lp404
S'D-62'
p405
aS'T-9'
p406
aa(lp407
S'D-62'
p408
aS'T-9'
p409
aa(lp410
S'D-428'
p411
aS'T-19'
p412
aa(lp413
S'D-428'
p414
aS'T-19'
p415
aa(lp416
S'D-428'
p417
aS'T-19'
p418
aa(lp419
S'D-428'
p420
aS'T-19'
p421
aa(lp422
S'D-428'
p423
aS'T-19'
p424
aa(lp425
S'D-428'
p426
aS'T-19'
p427
aa(lp428
S'D-428'
p429
aS'T-16'
p430
aa(lp431
S'D-428'
p432
aS'T-16'
p433
aa(lp434
S'D-428'
p435
aS'T-16'
p436
aa(lp437
S'D-428'
p438
aS'T-16'
p439
aa(lp440
S'D-428'
p441
aS'T-16'
p442
aa(lp443
S'D-428'
p444
aS'T-16'
p445
aa(lp446
S'D-428'
p447
aS'T-16'
p448
aa(lp449
S'D-428'
p450
aS'T-16'
p451
aa(lp452
S'D-428'
p453
aS'T-16'
p454
aa(lp455
S'D-428'
p456
aS'T-16'
p457
aa(lp458
S'D-428'
p459
aS'T-16'
p460
aa(lp461
S'D-428'
p462
aS'T-16'
p463
aa(lp464
S'D-299'
p465
aS'T-12'
p466
aa(lp467
S'D-299'
p468
aS'T-12'
p469
aa(lp470
S'D-299'
p471
aS'T-12'
p472
aa(lp473
S'D-299'
p474
aS'T-12'
p475
aa(lp476
S'D-299'
p477
aS'T-12'
p478
aa(lp479
S'D-299'
p480
aS'T-12'
p481
aa(lp482
S'D-299'
p483
aS'T-12'
p484
aa(lp485
S'D-299'
p486
aS'T-12'
p487
aa(lp488
S'D-299'
p489
aS'T-12'
p490
aa(lp491
S'D-299'
p492
aS'T-12'
p493
aa(lp494
S'D-299'
p495
aS'T-12'
p496
aa(lp497
S'D-299'
p498
aS'T-12'
p499
aa(lp500
S'D-466'
p501
aS'T-13'
p502
aa(lp503
S'D-466'
p504
aS'T-13'
p505
aa(lp506
S'D-466'
p507
aS'T-13'
p508
aa(lp509
S'D-466'
p510
aS'T-13'
p511
aa(lp512
S'D-466'
p513
aS'T-13'
p514
aa(lp515
S'D-466'
p516
aS'T-13'
p517
aa(lp518
S'D-466'
p519
aS'T-13'
p520
aa(lp521
S'D-466'
p522
aS'T-13'
p523
aa(lp524
S'D-466'
p525
aS'T-13'
p526
aa(lp527
S'D-466'
p528
aS'T-13'
p529
aa(lp530
S'D-466'
p531
aS'T-13'
p532
aa(lp533
S'D-466'
p534
aS'T-13'
p535
aa(lp536
S'D-466'
p537
aS'T-15'
p538
aa(lp539
S'D-466'
p540
aS'T-15'
p541
aa(lp542
S'D-466'
p543
aS'T-15'
p544
aa(lp545
S'D-466'
p546
aS'T-15'
p547
aa(lp548
S'D-466'
p549
aS'T-15'
p550
aa(lp551
S'D-466'
p552
aS'T-15'
p553
aa(lp554
S'D-466'
p555
aS'T-15'
p556
aa(lp557
S'D-466'
p558
aS'T-15'
p559
aa(lp560
S'D-466'
p561
aS'T-15'
p562
aa(lp563
S'D-466'
p564
aS'T-15'
p565
aa(lp566
S'D-466'
p567
aS'T-15'
p568
aa(lp569
S'D-466'
p570
aS'T-15'
p571
aa(lp572
S'D-466'
p573
aS'T-18'
p574
aa(lp575
S'D-466'
p576
aS'T-18'
p577
aa(lp578
S'D-466'
p579
aS'T-18'
p580
aa(lp581
S'D-466'
p582
aS'T-18'
p583
aa(lp584
S'D-466'
p585
aS'T-18'
p586
aa(lp587
S'D-466'
p588
aS'T-18'
p589
aa(lp590
S'D-466'
p591
aS'T-18'
p592
aa(lp593
S'D-466'
p594
aS'T-18'
p595
aa(lp596
S'D-62'
p597
aS'T-17'
p598
aa(lp599
S'D-62'
p600
aS'T-17'
p601
aa(lp602
S'D-62'
p603
aS'T-17'
p604
aa(lp605
S'D-62'
p606
aS'T-17'
p607
aa(lp608
S'D-62'
p609
aS'T-17'
p610
aa(lp611
S'D-62'
p612
aS'T-10'
p613
aa(lp614
S'D-62'
p615
aS'T-10'
p616
aa(lp617
S'D-62'
p618
aS'T-10'
p619
aa(lp620
S'D-62'
p621
aS'T-10'
p622
aa(lp623
S'D-62'
p624
aS'T-10'
p625
aa(lp626
S'D-62'
p627
aS'T-10'
p628
aa(lp629
S'D-62'
p630
aS'T-10'
p631
aa(lp632
S'D-62'
p633
aS'T-10'
p634
aa(lp635
S'D-62'
p636
aS'T-10'
p637
aa(lp638
S'D-62'
p639
aS'T-10'
p640
aa(lp641
S'D-62'
p642
aS'T-10'
p643
aa(lp644
S'D-62'
p645
aS'T-10'
p646
aa(lp647
S'D-62'
p648
aS'T-11'
p649
aa(lp650
S'D-62'
p651
aS'T-11'
p652
aa(lp653
S'D-62'
p654
aS'T-11'
p655
aa(lp656
S'D-62'
p657
aS'T-11'
p658
aa(lp659
S'D-62'
p660
aS'T-11'
p661
aa.